; Function Attrs: nounwind uwtable
define hidden i32 @X509_issuer_and_serial_cmp(ptr noundef readonly captures(none) %0, ptr noundef readonly captures(none) %1) local_unnamed_addr #0 {
  %3 = load ptr, ptr %0, align 8, !tbaa !6
  %4 = load ptr, ptr %1, align 8, !tbaa !6
  %5 = getelementptr inbounds nuw i8, ptr %3, i64 8
  %6 = load ptr, ptr %5, align 8, !tbaa !25
  %7 = getelementptr inbounds nuw i8, ptr %4, i64 8
  %8 = load ptr, ptr %7, align 8, !tbaa !25
  %9 = tail call i32 @ASN1_STRING_cmp(ptr noundef %6, ptr noundef %8) #8
  %.not = icmp eq i32 %9, 0
  br i1 %.not, label %10, label %X509_NAME_cmp.exit

10:                                               ; preds = %2
  %11 = getelementptr inbounds nuw i8, ptr %3, i64 24
  %12 = load ptr, ptr %11, align 8, !tbaa !32
  %13 = getelementptr inbounds nuw i8, ptr %4, i64 24
  %14 = load ptr, ptr %13, align 8, !tbaa !32
  %15 = getelementptr inbounds nuw i8, ptr %12, i64 24
  %16 = load ptr, ptr %15, align 8, !tbaa !33
  %.not.i = icmp eq ptr %16, null
  br i1 %.not.i, label %20, label %17

17:                                               ; preds = %10
  %18 = getelementptr inbounds nuw i8, ptr %12, i64 8
  %19 = load i32, ptr %18, align 8, !tbaa !37
  %.not16.i = icmp eq i32 %19, 0
  br i1 %.not16.i, label %23, label %20

20:                                               ; preds = %17, %10
  %21 = tail call i32 @i2d_X509_NAME(ptr noundef nonnull %12, ptr noundef null) #8
  %22 = icmp slt i32 %21, 0
  br i1 %22, label %X509_NAME_cmp.exit, label %23

23:                                               ; preds = %20, %17
  %24 = getelementptr inbounds nuw i8, ptr %14, i64 24
  %25 = load ptr, ptr %24, align 8, !tbaa !33
  %.not17.i = icmp eq ptr %25, null
  br i1 %.not17.i, label %29, label %26

26:                                               ; preds = %23
  %27 = getelementptr inbounds nuw i8, ptr %14, i64 8
  %28 = load i32, ptr %27, align 8, !tbaa !37
  %.not18.i = icmp eq i32 %28, 0
  br i1 %.not18.i, label %32, label %29

29:                                               ; preds = %26, %23
  %30 = tail call i32 @i2d_X509_NAME(ptr noundef nonnull %14, ptr noundef null) #8
  %31 = icmp slt i32 %30, 0
  br i1 %31, label %X509_NAME_cmp.exit, label %32

32:                                               ; preds = %29, %26
  %33 = getelementptr inbounds nuw i8, ptr %12, i64 32
  %34 = load i32, ptr %33, align 8, !tbaa !38
  %35 = getelementptr inbounds nuw i8, ptr %14, i64 32
  %36 = load i32, ptr %35, align 8, !tbaa !38
  %37 = sub nsw i32 %34, %36
  %.not19.i = icmp eq i32 %37, 0
  br i1 %.not19.i, label %38, label %X509_NAME_cmp.exit

38:                                               ; preds = %32
  %39 = load ptr, ptr %15, align 8, !tbaa !33
  %40 = load ptr, ptr %24, align 8, !tbaa !33
  %41 = sext i32 %34 to i64
  %42 = tail call i32 @memcmp(ptr noundef %39, ptr noundef %40, i64 noundef %41) #9
  br label %X509_NAME_cmp.exit

X509_NAME_cmp.exit:                               ; preds = %38, %32, %29, %20, %2
  %.0 = phi i32 [ %9, %2 ], [ %42, %38 ], [ -2, %20 ], [ -2, %29 ], [ %37, %32 ]
  ret i32 %.0
}